; Function Attrs: cold mustprogress noreturn uwtable
define void @_ZN11extension_t19illegal_instructionEv(ptr noundef nonnull readnone align 8 captures(none) dereferenceable(16) %0) local_unnamed_addr #6 align 2 personality ptr @__gxx_personality_v0 {
  %2 = tail call ptr @__cxa_allocate_exception(i64 32) #18
  %3 = getelementptr inbounds nuw i8, ptr %2, i64 8
  store i64 2, ptr %3, align 8, !tbaa !3
  %4 = getelementptr inbounds nuw i8, ptr %2, i64 16
  store i8 0, ptr %4, align 8, !tbaa !8
  %5 = getelementptr inbounds nuw i8, ptr %2, i64 24
  store i64 0, ptr %5, align 8, !tbaa !11
  store ptr getelementptr inbounds nuw inrange(-16, 80) (i8, ptr @_ZTV24trap_illegal_instruction, i64 16), ptr %2, align 8, !tbaa !12
  tail call void @__cxa_throw(ptr nonnull %2, ptr nonnull @_ZTI24trap_illegal_instruction, ptr nonnull @_ZN6trap_tD2Ev) #19
  unreachable
}